target datalayout = "e-m:e-p270:32:32-p271:32:32-p272:64:64-i64:64-i128:128-f80:128-n8:16:32:64-S128"
target triple = "x86_64-pc-linux-gnu"

%struct.AVProbeData = type { ptr, ptr, i32, ptr }

; Function Attrs: nounwind uwtable
define internal i32 @xa_probe(ptr noundef %0) #0 {
  %2 = alloca i32, align 4
  %3 = alloca ptr, align 8
  %4 = alloca i32, align 4
  %5 = alloca i32, align 4
  %6 = alloca i32, align 4
  %7 = alloca i32, align 4
  store ptr %0, ptr %3, align 8, !tbaa !4
  call void @llvm.lifetime.start.p0(i64 4, ptr %4) #4
  call void @llvm.lifetime.start.p0(i64 4, ptr %5) #4
  call void @llvm.lifetime.start.p0(i64 4, ptr %6) #4
  %8 = load ptr, ptr %3, align 8, !tbaa !4
  %9 = getelementptr inbounds nuw %struct.AVProbeData, ptr %8, i32 0, i32 2
  %10 = load i32, ptr %9, align 8, !tbaa !9
  %11 = icmp slt i32 %10, 24
  br i1 %11, label %12, label %13

12:                                               ; preds = %1
  store i32 0, ptr %2, align 4
  store i32 1, ptr %7, align 4
  br label %57

13:                                               ; preds = %1
  %14 = load ptr, ptr %3, align 8, !tbaa !4
  %15 = getelementptr inbounds nuw %struct.AVProbeData, ptr %14, i32 0, i32 1
  %16 = load ptr, ptr %15, align 8, !tbaa !13
  %17 = load i32, ptr %16, align 1, !tbaa !14
  switch i32 %17, label %19 [
    i32 16728, label %18
    i32 4800856, label %18
    i32 4866392, label %18
  ]

18:                                               ; preds = %13, %13, %13
  br label %20

19:                                               ; preds = %13
  store i32 0, ptr %2, align 4
  store i32 1, ptr %7, align 4
  br label %57

20:                                               ; preds = %18
  %21 = load ptr, ptr %3, align 8, !tbaa !4
  %22 = getelementptr inbounds nuw %struct.AVProbeData, ptr %21, i32 0, i32 1
  %23 = load ptr, ptr %22, align 8, !tbaa !13
  %24 = getelementptr inbounds i8, ptr %23, i64 10
  %25 = load i16, ptr %24, align 1, !tbaa !14
  %26 = zext i16 %25 to i32
  store i32 %26, ptr %4, align 4, !tbaa !15
  %27 = load ptr, ptr %3, align 8, !tbaa !4
  %28 = getelementptr inbounds nuw %struct.AVProbeData, ptr %27, i32 0, i32 1
  %29 = load ptr, ptr %28, align 8, !tbaa !13
  %30 = getelementptr inbounds i8, ptr %29, i64 12
  %31 = load i32, ptr %30, align 1, !tbaa !14
  store i32 %31, ptr %5, align 4, !tbaa !15
  %32 = load ptr, ptr %3, align 8, !tbaa !4
  %33 = getelementptr inbounds nuw %struct.AVProbeData, ptr %32, i32 0, i32 1
  %34 = load ptr, ptr %33, align 8, !tbaa !13
  %35 = getelementptr inbounds i8, ptr %34, i64 22
  %36 = load i16, ptr %35, align 1, !tbaa !14
  %37 = zext i16 %36 to i32
  store i32 %37, ptr %6, align 4, !tbaa !15
  %38 = load i32, ptr %4, align 4, !tbaa !15
  %39 = icmp ne i32 %38, 0
  br i1 %39, label %40, label %55

40:                                               ; preds = %20
  %41 = load i32, ptr %4, align 4, !tbaa !15
  %42 = icmp sgt i32 %41, 8
  br i1 %42, label %55, label %43

43:                                               ; preds = %40
  %44 = load i32, ptr %5, align 4, !tbaa !15
  %45 = icmp ne i32 %44, 0
  br i1 %45, label %46, label %55

46:                                               ; preds = %43
  %47 = load i32, ptr %5, align 4, !tbaa !15
  %48 = icmp sgt i32 %47, 192000
  br i1 %48, label %55, label %49

49:                                               ; preds = %46
  %50 = load i32, ptr %6, align 4, !tbaa !15
  %51 = icmp slt i32 %50, 4
  br i1 %51, label %55, label %52

52:                                               ; preds = %49
  %53 = load i32, ptr %6, align 4, !tbaa !15
  %54 = icmp sgt i32 %53, 32
  br i1 %54, label %55, label %56

55:                                               ; preds = %52, %49, %46, %43, %40, %20
  store i32 0, ptr %2, align 4
  store i32 1, ptr %7, align 4
  br label %57

56:                                               ; preds = %52
  store i32 50, ptr %2, align 4
  store i32 1, ptr %7, align 4
  br label %57

57:                                               ; preds = %56, %55, %19, %12
  call void @llvm.lifetime.end.p0(i64 4, ptr %6) #4
  call void @llvm.lifetime.end.p0(i64 4, ptr %5) #4
  call void @llvm.lifetime.end.p0(i64 4, ptr %4) #4
  %58 = load i32, ptr %2, align 4
  ret i32 %58
}