; Function Attrs: mustprogress nofree norecurse nosync nounwind willreturn memory(read, inaccessiblemem: none) uwtable
define internal range(i32 0, 51) i32 @xa_probe(ptr noundef readonly captures(none) %0) #0 {
  %2 = getelementptr inbounds nuw i8, ptr %0, i64 16
  %3 = load i32, ptr %2, align 8, !tbaa !4
  %4 = icmp slt i32 %3, 24
  br i1 %4, label %22, label %5

5:                                                ; preds = %1
  %6 = getelementptr inbounds nuw i8, ptr %0, i64 8
  %7 = load ptr, ptr %6, align 8, !tbaa !11
  %8 = load i32, ptr %7, align 1, !tbaa !12
  switch i32 %8, label %22 [
    i32 16728, label %9
    i32 4800856, label %9
    i32 4866392, label %9
  ]

9:                                                ; preds = %5, %5, %5
  %10 = getelementptr inbounds nuw i8, ptr %7, i64 10
  %11 = load i16, ptr %10, align 1, !tbaa !12
  %12 = getelementptr inbounds nuw i8, ptr %7, i64 12
  %13 = load i32, ptr %12, align 1, !tbaa !12
  %14 = getelementptr inbounds nuw i8, ptr %7, i64 22
  %15 = load i16, ptr %14, align 1, !tbaa !12
  %16 = add i16 %11, -9
  %or.cond = icmp ult i16 %16, -8
  %17 = icmp eq i32 %13, 0
  %18 = icmp sgt i32 %13, 192000
  %19 = or i1 %17, %18
  %or.cond5 = select i1 %or.cond, i1 true, i1 %19
  %20 = add i16 %15, -33
  %21 = icmp ult i16 %20, -29
  %or.cond9 = select i1 %or.cond5, i1 true, i1 %21
  %. = select i1 %or.cond9, i32 0, i32 50
  br label %22

22:                                               ; preds = %9, %5, %1
  %.0 = phi i32 [ 0, %1 ], [ 0, %5 ], [ %., %9 ]
  ret i32 %.0
}